; ModuleID = '47/4563.c'
source_filename = "47/4563.c"
target datalayout = "e-m:e-p270:32:32-p271:32:32-p272:64:64-i64:64-f80:128-n8:16:32:64-S128"
target triple = "x86_64-pc-linux-gnu"

@.str = private unnamed_addr constant [3 x i8] c"%d\00", align 1
@.str.1 = private unnamed_addr constant [4 x i8] c" %d\00", align 1

; Function Attrs: noinline nounwind uwtable
define dso_local i32 @main() #0 {
  %1 = alloca i32, align 4
  %2 = alloca i32, align 4
  %3 = alloca i32, align 4
  %4 = alloca [100 x i32], align 16
  %5 = alloca i32*, align 8
  store i32 0, i32* %1, align 4
  %6 = call i32 (i8*, ...) @__isoc99_scanf(i8* getelementptr inbounds ([3 x i8], [3 x i8]* @.str, i64 0, i64 0), i32* %3)
  %7 = getelementptr inbounds [100 x i32], [100 x i32]* %4, i64 0, i64 0
  store i32* %7, i32** %5, align 8
  br label %8

8:                                                ; preds = %18, %0
  %9 = load i32*, i32** %5, align 8
  %10 = getelementptr inbounds [100 x i32], [100 x i32]* %4, i64 0, i64 0
  %11 = load i32, i32* %3, align 4
  %12 = sext i32 %11 to i64
  %13 = getelementptr inbounds i32, i32* %10, i64 %12
  %14 = icmp ult i32* %9, %13
  br i1 %14, label %15, label %21

15:                                               ; preds = %8
  %16 = load i32*, i32** %5, align 8
  %17 = call i32 (i8*, ...) @__isoc99_scanf(i8* getelementptr inbounds ([3 x i8], [3 x i8]* @.str, i64 0, i64 0), i32* %16)
  br label %18

18:                                               ; preds = %15
  %19 = load i32*, i32** %5, align 8
  %20 = getelementptr inbounds i32, i32* %19, i32 1
  store i32* %20, i32** %5, align 8
  br label %8

21:                                               ; preds = %8
  %22 = getelementptr inbounds [100 x i32], [100 x i32]* %4, i64 0, i64 0
  %23 = load i32, i32* %3, align 4
  call void @inv(i32* %22, i32 %23)
  %24 = getelementptr inbounds [100 x i32], [100 x i32]* %4, i64 0, i64 0
  %25 = load i32, i32* %24, align 16
  %26 = call i32 (i8*, ...) @printf(i8* getelementptr inbounds ([3 x i8], [3 x i8]* @.str, i64 0, i64 0), i32 %25)
  %27 = getelementptr inbounds [100 x i32], [100 x i32]* %4, i64 0, i64 0
  %28 = getelementptr inbounds i32, i32* %27, i64 1
  store i32* %28, i32** %5, align 8
  br label %29

29:                                               ; preds = %40, %21
  %30 = load i32*, i32** %5, align 8
  %31 = getelementptr inbounds [100 x i32], [100 x i32]* %4, i64 0, i64 0
  %32 = load i32, i32* %3, align 4
  %33 = sext i32 %32 to i64
  %34 = getelementptr inbounds i32, i32* %31, i64 %33
  %35 = icmp ult i32* %30, %34
  br i1 %35, label %36, label %43

36:                                               ; preds = %29
  %37 = load i32*, i32** %5, align 8
  %38 = load i32, i32* %37, align 4
  %39 = call i32 (i8*, ...) @printf(i8* getelementptr inbounds ([4 x i8], [4 x i8]* @.str.1, i64 0, i64 0), i32 %38)
  br label %40

40:                                               ; preds = %36
  %41 = load i32*, i32** %5, align 8
  %42 = getelementptr inbounds i32, i32* %41, i32 1
  store i32* %42, i32** %5, align 8
  br label %29

43:                                               ; preds = %29
  %44 = load i32, i32* %1, align 4
  ret i32 %44
}

declare dso_local i32 @__isoc99_scanf(i8*, ...) #1

; Function Attrs: noinline nounwind uwtable
define dso_local void @inv(i32* %0, i32 %1) #0 {
  %3 = alloca i32*, align 8
  %4 = alloca i32, align 4
  %5 = alloca i32, align 4
  %6 = alloca i32, align 4
  %7 = alloca i32, align 4
  store i32* %0, i32** %3, align 8
  store i32 %1, i32* %4, align 4
  %8 = load i32, i32* %4, align 4
  %9 = sdiv i32 %8, 2
  store i32 %9, i32* %7, align 4
  store i32 0, i32* %6, align 4
  br label %10

10:                                               ; preds = %44, %2
  %11 = load i32, i32* %6, align 4
  %12 = load i32, i32* %7, align 4
  %13 = icmp slt i32 %11, %12
  br i1 %13, label %14, label %47

14:                                               ; preds = %10
  %15 = load i32*, i32** %3, align 8
  %16 = load i32, i32* %4, align 4
  %17 = sext i32 %16 to i64
  %18 = getelementptr inbounds i32, i32* %15, i64 %17
  %19 = load i32, i32* %6, align 4
  %20 = sext i32 %19 to i64
  %21 = sub i64 0, %20
  %22 = getelementptr inbounds i32, i32* %18, i64 %21
  %23 = getelementptr inbounds i32, i32* %22, i64 -1
  %24 = load i32, i32* %23, align 4
  store i32 %24, i32* %5, align 4
  %25 = load i32*, i32** %3, align 8
  %26 = load i32, i32* %6, align 4
  %27 = sext i32 %26 to i64
  %28 = getelementptr inbounds i32, i32* %25, i64 %27
  %29 = load i32, i32* %28, align 4
  %30 = load i32*, i32** %3, align 8
  %31 = load i32, i32* %4, align 4
  %32 = sext i32 %31 to i64
  %33 = getelementptr inbounds i32, i32* %30, i64 %32
  %34 = load i32, i32* %6, align 4
  %35 = sext i32 %34 to i64
  %36 = sub i64 0, %35
  %37 = getelementptr inbounds i32, i32* %33, i64 %36
  %38 = getelementptr inbounds i32, i32* %37, i64 -1
  store i32 %29, i32* %38, align 4
  %39 = load i32, i32* %5, align 4
  %40 = load i32*, i32** %3, align 8
  %41 = load i32, i32* %6, align 4
  %42 = sext i32 %41 to i64
  %43 = getelementptr inbounds i32, i32* %40, i64 %42
  store i32 %39, i32* %43, align 4
  br label %44

44:                                               ; preds = %14
  %45 = load i32, i32* %6, align 4
  %46 = add nsw i32 %45, 1
  store i32 %46, i32* %6, align 4
  br label %10

47:                                               ; preds = %10
  ret void
}

declare dso_local i32 @printf(i8*, ...) #1


!llvm.module.flags = !{!0}
!llvm.ident = !{!1}

!0 = !{i32 1, !"wchar_size", i32 4}
!1 = !{!"clang version 10.0.0-4ubuntu1 "}
